	.file	"acquire.c"
	.text
Ltext0:
	.comm	_puiADC0Buffer, 12288, 5
	.comm	_puiADC0StartPtr, 4, 2
	.comm	_puiADC0StopPtr, 4, 2
	.globl	_puiADC0BufferPtr
	.bss
	.align 4
_puiADC0BufferPtr:
	.space 4
	.globl	_eventflags
_eventflags:
	.space 1
	.comm	_buffersize, 4, 2
	.comm	_sequence, 4, 2
	.comm	_steplen, 4, 2
	.globl	_datapoints
	.data
	.align 4
_datapoints:
	.long	999999999
	.long	0
	.long	0
	.globl	_p_processingPtr
	.bss
	.align 4
_p_processingPtr:
	.space 4
	.comm	_puiConfig, 4, 2
	.text
	.globl	_computeSample
	.def	_computeSample;	.scl	2;	.type	32;	.endef
_computeSample:
LFB6:
	.file 1 "acquire.c"
	.loc 1 92 0
	.cfi_startproc
	pushl	%ebp
	.cfi_def_cfa_offset 8
	.cfi_offset 5, -8
	movl	%esp, %ebp
	.cfi_def_cfa_register 5
	subl	$40, %esp
	.loc 1 95 0
	movl	$0, -12(%ebp)
L4:
LBB2:
	.loc 1 97 0
	call	_ROM_IntMasterDisable
	.loc 1 98 0
	movl	_puiADC0BufferPtr, %eax
	movl	%eax, -20(%ebp)
	.loc 1 99 0
	call	_ROM_IntMasterEnable
	.loc 1 100 0
	cmpl	$-1, -20(%ebp)
	jne	L2
	.loc 1 101 0
	movl	_buffersize, %eax
	movl	%eax, -12(%ebp)
	jmp	L3
L2:
	.loc 1 103 0
	movl	-20(%ebp), %eax
	movl	%eax, -12(%ebp)
L3:
	.loc 1 105 0
	movl	_p_processingPtr, %eax
	subl	%eax, -12(%ebp)
	.loc 1 107 0
	movl	$1000, (%esp)
	call	_SysCtlDelay
LBE2:
	.loc 1 108 0
	movl	-12(%ebp), %edx
	movl	8(%ebp), %eax
	movl	4(%eax), %eax
	cmpl	%eax, %edx
	jb	L4
	.loc 1 111 0
	movl	$999999999, _datapoints
	.loc 1 112 0
	movl	$0, _datapoints+8
	movl	_datapoints+8, %eax
	movl	%eax, _datapoints+4
LBB3:
	.loc 1 114 0
	movl	_p_processingPtr, %eax
	movl	%eax, -16(%ebp)
	jmp	L5
L8:
	.loc 1 115 0
	movl	-16(%ebp), %eax
	movl	_puiADC0Buffer(,%eax,4), %edx
	movl	_datapoints, %eax
	cmpl	%eax, %edx
	jae	L6
	.loc 1 116 0
	movl	-16(%ebp), %eax
	movl	_puiADC0Buffer(,%eax,4), %eax
	movl	%eax, _datapoints
L6:
	.loc 1 118 0
	movl	-16(%ebp), %eax
	movl	_puiADC0Buffer(,%eax,4), %edx
	movl	_datapoints+4, %eax
	cmpl	%eax, %edx
	jbe	L7
	.loc 1 119 0
	movl	-16(%ebp), %eax
	movl	_puiADC0Buffer(,%eax,4), %eax
	movl	%eax, _datapoints+4
L7:
	.loc 1 121 0
	movl	_datapoints+8, %edx
	movl	-16(%ebp), %eax
	movl	_puiADC0Buffer(,%eax,4), %eax
	addl	%edx, %eax
	movl	%eax, _datapoints+8
	.loc 1 114 0
	addl	$1, -16(%ebp)
L5:
	.loc 1 114 0 is_stmt 0 discriminator 1
	movl	-16(%ebp), %edx
	movl	8(%ebp), %eax
	movl	4(%eax), %eax
	cmpl	%eax, %edx
	jb	L8
LBE3:
	.loc 1 123 0 is_stmt 1
	movl	_datapoints+8, %eax
	movl	8(%ebp), %edx
	movl	4(%edx), %ecx
	movl	$0, %edx
	divl	%ecx
	movl	%eax, _datapoints+8
	.loc 1 124 0
	movl	8(%ebp), %eax
	movl	4(%eax), %edx
	movl	_p_processingPtr, %eax
	addl	%edx, %eax
	movl	%eax, _p_processingPtr
	.loc 1 126 0
	movl	_p_processingPtr, %eax
	movl	%eax, %edx
	movl	_buffersize, %eax
	cmpl	%eax, %edx
	jne	L1
	.loc 1 127 0
	movl	$0, _p_processingPtr
L1:
	.loc 1 128 0
	leave
	.cfi_restore 5
	.cfi_def_cfa 4, 4
	ret
	.cfi_endproc
LFE6:
	.globl	_GetSequence
	.def	_GetSequence;	.scl	2;	.type	32;	.endef
_GetSequence:
LFB7:
	.loc 1 139 0
	.cfi_startproc
	pushl	%ebp
	.cfi_def_cfa_offset 8
	.cfi_offset 5, -8
	movl	%esp, %ebp
	.cfi_def_cfa_register 5
	.loc 1 140 0
	movl	8(%ebp), %eax
	movl	(%eax), %eax
	cmpl	$1000000, %eax
	jne	L14
	.loc 1 141 0
	movl	$0, %eax
	jmp	L13
L14:
	.loc 1 142 0
	movl	$3, %eax
L13:
	.loc 1 144 0
	popl	%ebp
	.cfi_restore 5
	.cfi_def_cfa 4, 4
	ret
	.cfi_endproc
LFE7:
	.globl	_tobedelted
	.bss
	.align 4
_tobedelted:
	.space 4
	.text
	.globl	_GetSampleISR
	.def	_GetSampleISR;	.scl	2;	.type	32;	.endef
_GetSampleISR:
LFB8:
	.loc 1 151 0
	.cfi_startproc
	pushl	%ebp
	.cfi_def_cfa_offset 8
	.cfi_offset 5, -8
	movl	%esp, %ebp
	.cfi_def_cfa_register 5
	subl	$24, %esp
	.loc 1 153 0
	movl	_sequence, %eax
	movl	%eax, 4(%esp)
	movl	$1073971200, (%esp)
	call	_ADCIntClear
	.loc 1 154 0
	movl	_puiADC0StartPtr, %edx
	movl	_sequence, %eax
	movl	%edx, 8(%esp)
	movl	%eax, 4(%esp)
	movl	$1073971200, (%esp)
	call	_ADCSequenceDataGet
	.loc 1 155 0
	movl	_puiADC0StartPtr, %eax
	movl	_steplen, %edx
	sall	$2, %edx
	addl	%edx, %eax
	movl	%eax, _puiADC0StartPtr
	.loc 1 160 0
	movl	_puiADC0StartPtr, %edx
	movl	_puiADC0StopPtr, %eax
	cmpl	%eax, %edx
	jne	L15
	.loc 1 161 0
	movl	$_puiADC0Buffer, _puiADC0StartPtr
L15:
	.loc 1 166 0
	leave
	.cfi_restore 5
	.cfi_def_cfa 4, 4
	ret
	.cfi_endproc
LFE8:
	.globl	_GetPeriod
	.def	_GetPeriod;	.scl	2;	.type	32;	.endef
_GetPeriod:
LFB9:
	.loc 1 171 0
	.cfi_startproc
	pushl	%ebp
	.cfi_def_cfa_offset 8
	.cfi_offset 5, -8
	movl	%esp, %ebp
	.cfi_def_cfa_register 5
	subl	$8, %esp
	.loc 1 172 0
	call	_SysCtlClockGet
	movl	$0, %edx
	divl	8(%ebp)
	.loc 1 173 0
	leave
	.cfi_restore 5
	.cfi_def_cfa 4, 4
	ret
	.cfi_endproc
LFE9:
	.globl	_ConfigTimer0
	.def	_ConfigTimer0;	.scl	2;	.type	32;	.endef
_ConfigTimer0:
LFB10:
	.loc 1 181 0
	.cfi_startproc
	pushl	%ebp
	.cfi_def_cfa_offset 8
	.cfi_offset 5, -8
	movl	%esp, %ebp
	.cfi_def_cfa_register 5
	subl	$24, %esp
	.loc 1 185 0
	movl	$-268434432, (%esp)
	call	_ROM_SysCtlPeripheralEnable
	.loc 1 189 0
	movl	$50, 4(%esp)
	movl	$1073938432, (%esp)
	call	_ROM_TimerConfigure
	.loc 1 190 0
	movl	8(%ebp), %eax
	movl	%eax, 8(%esp)
	movl	$255, 4(%esp)
	movl	$1073938432, (%esp)
	call	_ROM_TimerLoadSet
	.loc 1 192 0
	movl	$1, 8(%esp)
	movl	$255, 4(%esp)
	movl	$1073938432, (%esp)
	call	_TimerControlTrigger
	.loc 1 196 0
	movl	$255, 4(%esp)
	movl	$1073938432, (%esp)
	call	_ROM_TimerEnable
	.loc 1 197 0
	leave
	.cfi_restore 5
	.cfi_def_cfa 4, 4
	ret
	.cfi_endproc
LFE10:
	.section .rdata,"dr"
LC0:
	.ascii "ADC Acquire Start\12\0"
	.text
	.globl	_AcquireStart
	.def	_AcquireStart;	.scl	2;	.type	32;	.endef
_AcquireStart:
LFB11:
	.loc 1 205 0
	.cfi_startproc
	pushl	%ebp
	.cfi_def_cfa_offset 8
	.cfi_offset 5, -8
	movl	%esp, %ebp
	.cfi_def_cfa_register 5
	subl	$40, %esp
	.loc 1 209 0
	movl	$LC0, (%esp)
	call	_UARTprintf
	.loc 1 214 0
	movl	$-268421120, (%esp)
	call	_SysCtlPeripheralEnable
	.loc 1 219 0
	movl	$-268433404, (%esp)
	call	_SysCtlPeripheralEnable
	.loc 1 224 0
	movl	8(%ebp), %eax
	movl	8(%eax), %eax
	testl	%eax, %eax
	jne	L21
	.loc 1 225 0
	movl	$64, 4(%esp)
	movl	$1073889280, (%esp)
	call	_GPIOPinTypeADC
	jmp	L22
L21:
	.loc 1 226 0
	movl	8(%ebp), %eax
	movl	8(%eax), %eax
	cmpl	$1, %eax
	jne	L22
	.loc 1 227 0
	movl	$8, 4(%esp)
	movl	$1073889280, (%esp)
	call	_GPIOPinTypeADC
L22:
	.loc 1 233 0
	movl	$1, 4(%esp)
	movl	$1073971200, (%esp)
	call	_ADCReferenceSet
	.loc 1 239 0
	movl	$-268433407, (%esp)
	call	_SysCtlPeripheralEnable
	.loc 1 240 0
	movl	$1073763624, %eax
	movl	$1073763624, %edx
	movl	(%edx), %edx
	orl	$64, %edx
	movl	%edx, (%eax)
	.loc 1 248 0
	movl	_sequence, %eax
	movl	$3, 12(%esp)
	movl	$5, 8(%esp)
	movl	%eax, 4(%esp)
	movl	$1073971200, (%esp)
	call	_ADCSequenceConfigure
	.loc 1 249 0
	movl	_sequence, %eax
	movl	$_GetSampleISR, 8(%esp)
	movl	%eax, 4(%esp)
	movl	$1073971200, (%esp)
	call	_ADCIntRegister
	.loc 1 262 0
	movl	$0, -12(%ebp)
	.loc 1 263 0
	movl	8(%ebp), %eax
	movl	8(%eax), %eax
	testl	%eax, %eax
	jne	L23
	.loc 1 264 0
	movl	$261, -12(%ebp)
	jmp	L24
L23:
	.loc 1 265 0
	movl	8(%ebp), %eax
	movl	8(%eax), %eax
	cmpl	$1, %eax
	jne	L24
	.loc 1 266 0
	movl	$0, -12(%ebp)
L24:
	.loc 1 270 0
	movl	8(%ebp), %eax
	movl	4(%eax), %edx
	movl	%edx, %eax
	addl	%eax, %eax
	addl	%edx, %eax
	sall	$5, %eax
	movl	%eax, _buffersize
LBB4:
	.loc 1 271 0
	movl	$0, -16(%ebp)
	jmp	L25
L27:
	.loc 1 272 0
	movl	-16(%ebp), %eax
	movl	_steplen, %edx
	subl	$1, %edx
	cmpl	%edx, %eax
	jne	L26
	.loc 1 273 0
	orl	$96, -12(%ebp)
L26:
	.loc 1 275 0
	movl	-16(%ebp), %edx
	movl	_sequence, %eax
	movl	-12(%ebp), %ecx
	movl	%ecx, 12(%esp)
	movl	%edx, 8(%esp)
	movl	%eax, 4(%esp)
	movl	$1073971200, (%esp)
	call	_ADCSequenceStepConfigure
	.loc 1 271 0
	addl	$1, -16(%ebp)
L25:
	.loc 1 271 0 is_stmt 0 discriminator 1
	movl	-16(%ebp), %edx
	movl	_steplen, %eax
	cmpl	%eax, %edx
	jb	L27
LBE4:
	.loc 1 281 0 is_stmt 1
	movl	_sequence, %eax
	movl	%eax, 4(%esp)
	movl	$1073971200, (%esp)
	call	_ADCSequenceEnable
	.loc 1 287 0
	movl	_sequence, %eax
	movl	%eax, 4(%esp)
	movl	$1073971200, (%esp)
	call	_ADCIntClear
	.loc 1 289 0
	movl	_sequence, %eax
	movl	%eax, 4(%esp)
	movl	$1073971200, (%esp)
	call	_ADCIntEnable
	.loc 1 290 0
	movl	8(%ebp), %eax
	movl	(%eax), %eax
	movl	%eax, (%esp)
	call	_GetPeriod
	movl	%eax, (%esp)
	call	_ConfigTimer0
	.loc 1 291 0
	leave
	.cfi_restore 5
	.cfi_def_cfa 4, 4
	ret
	.cfi_endproc
LFE11:
	.globl	_ReadAccel
	.def	_ReadAccel;	.scl	2;	.type	32;	.endef
_ReadAccel:
LFB12:
	.loc 1 294 0
	.cfi_startproc
	pushl	%ebp
	.cfi_def_cfa_offset 8
	.cfi_offset 5, -8
	movl	%esp, %ebp
	.cfi_def_cfa_register 5
	.loc 1 295 0
	movl	8(%ebp), %eax
	imull	$2442, %eax, %eax
	leal	-5000000(%eax), %ecx
	movl	$1759218605, %edx
	movl	%ecx, %eax
	imull	%edx
	sarl	$12, %edx
	movl	%ecx, %eax
	sarl	$31, %eax
	subl	%eax, %edx
	movl	%edx, %eax
	.loc 1 296 0
	popl	%ebp
	.cfi_restore 5
	.cfi_def_cfa 4, 4
	ret
	.cfi_endproc
LFE12:
	.section .rdata,"dr"
LC1:
	.ascii "%d\0"
LC2:
	.ascii "\15\0"
	.text
	.globl	_AcquireMain
	.def	_AcquireMain;	.scl	2;	.type	32;	.endef
_AcquireMain:
LFB13:
	.loc 1 306 0
	.cfi_startproc
	pushl	%ebp
	.cfi_def_cfa_offset 8
	.cfi_offset 5, -8
	movl	%esp, %ebp
	.cfi_def_cfa_register 5
	subl	$40, %esp
	.loc 1 316 0
	movl	12(%ebp), %eax
	movl	%eax, _puiConfig
	.loc 1 318 0
	movl	$_puiADC0Buffer, _puiADC0StartPtr
	.loc 1 319 0
	movl	_puiConfig, %eax
	movl	4(%eax), %edx
	movl	%edx, %eax
	addl	%eax, %eax
	addl	%edx, %eax
	sall	$5, %eax
	subl	$1, %eax
	sall	$2, %eax
	addl	$_puiADC0Buffer, %eax
	movl	%eax, _puiADC0StopPtr
	.loc 1 320 0
	movl	$0, _puiADC0BufferPtr
	.loc 1 321 0
	movl	_puiConfig, %eax
	movl	%eax, (%esp)
	call	_GetSequence
	movl	%eax, _sequence
	.loc 1 322 0
	movl	_sequence, %eax
	testl	%eax, %eax
	jne	L31
	.loc 1 322 0 is_stmt 0 discriminator 1
	movl	$8, %eax
	jmp	L32
L31:
	.loc 1 322 0 discriminator 2
	movl	$1, %eax
L32:
	.loc 1 322 0 discriminator 3
	movl	%eax, _steplen
	.loc 1 339 0 is_stmt 1 discriminator 3
	movl	_puiConfig, %eax
	movl	%eax, (%esp)
	call	_AcquireStart
L33:
LBB5:
	.loc 1 343 0
	movl	_puiConfig, %eax
	movl	%eax, 4(%esp)
	movl	8(%ebp), %eax
	movl	%eax, (%esp)
	call	_vPollSBoxButton
	.loc 1 344 0
	movl	_puiConfig, %eax
	movl	12(%eax), %eax
	.loc 1 348 0
	call	_ROM_IntMasterDisable
	.loc 1 349 0
	movl	_puiADC0StartPtr, %eax
	subl	$4, %eax
	movl	(%eax), %eax
	movl	%eax, 8(%esp)
	movl	$LC1, 4(%esp)
	leal	-13(%ebp), %eax
	movl	%eax, (%esp)
	call	_usprintf
	.loc 1 350 0
	call	_ROM_IntMasterEnable
	.loc 1 351 0
	leal	-13(%ebp), %eax
	movl	%eax, (%esp)
	call	_UARTprintf
	.loc 1 352 0
	movl	$LC2, (%esp)
	call	_UARTprintf
	.loc 1 385 0
	call	_SysCtlClockGet
	movl	$1374389535, %edx
	mull	%edx
	movl	%edx, %eax
	shrl	$5, %eax
	movl	%eax, (%esp)
	call	_SysCtlDelay
LBE5:
	.loc 1 386 0
	jmp	L33
	.cfi_endproc
LFE13:
	.globl	_StopDetection
	.def	_StopDetection;	.scl	2;	.type	32;	.endef
_StopDetection:
LFB14:
	.loc 1 393 0
	.cfi_startproc
	pushl	%ebp
	.cfi_def_cfa_offset 8
	.cfi_offset 5, -8
	movl	%esp, %ebp
	.cfi_def_cfa_register 5
	subl	$24, %esp
	.loc 1 395 0
	movl	$0, 8(%esp)
	movl	$255, 4(%esp)
	movl	$1073938432, (%esp)
	call	_TimerControlTrigger
	.loc 1 397 0
	movl	$3, 4(%esp)
	movl	$1073971200, (%esp)
	call	_ADCIntDisable
	.loc 1 399 0
	movl	$3, 4(%esp)
	movl	$1073971200, (%esp)
	call	_ADCIntUnregister
	.loc 1 401 0
	movl	$3, 4(%esp)
	movl	$1073971200, (%esp)
	call	_ADCSequenceDisable
	.loc 1 406 0
	leave
	.cfi_restore 5
	.cfi_def_cfa 4, 4
	ret
	.cfi_endproc
LFE14:
	.globl	_first
	.data
_first:
	.byte	1
	.globl	_prev_value
	.bss
	.align 4
_prev_value:
	.space 4
	.section .rdata,"dr"
LC3:
	.ascii "Accel!\15\0"
LC4:
	.ascii "Volts!\15\0"
	.text
	.globl	_TriggerDetectISR
	.def	_TriggerDetectISR;	.scl	2;	.type	32;	.endef
_TriggerDetectISR:
LFB15:
	.loc 1 428 0
	.cfi_startproc
	pushl	%ebp
	.cfi_def_cfa_offset 8
	.cfi_offset 5, -8
	movl	%esp, %ebp
	.cfi_def_cfa_register 5
	subl	$40, %esp
	.loc 1 429 0
	movl	$3, 4(%esp)
	movl	$1073971200, (%esp)
	call	_ADCIntClear
	.loc 1 430 0
	movl	_tobedelted, %eax
	addl	$1, %eax
	movl	%eax, _tobedelted
	.loc 1 431 0
	movl	$_puiADC0Buffer, 8(%esp)
	movl	$3, 4(%esp)
	movl	$1073971200, (%esp)
	call	_ADCSequenceDataGet
	.loc 1 432 0
	movl	_puiConfig, %eax
	movl	8(%eax), %eax
	testl	%eax, %eax
	jne	L36
	.loc 1 433 0
	movzbl	_first, %eax
	testb	%al, %al
	je	L37
	.loc 1 434 0
	movb	$0, _first
	.loc 1 435 0
	movl	_puiADC0Buffer, %eax
	movl	%eax, (%esp)
	call	_ReadAccel
	movl	%eax, _prev_value
	jmp	L35
L37:
LBB6:
	.loc 1 437 0
	movl	_puiADC0Buffer, %eax
	movl	%eax, (%esp)
	call	_ReadAccel
	movl	%eax, -12(%ebp)
LBB7:
	.loc 1 438 0
	movl	_prev_value, %eax
	movl	-12(%ebp), %edx
	subl	%eax, %edx
	movl	%edx, %eax
	cltd
	xorl	%edx, %eax
	subl	%edx, %eax
	cmpl	$50, %eax
	jle	L39
	.loc 1 439 0
	movl	$LC3, (%esp)
	call	_UARTprintf
	.loc 1 441 0
	movzbl	_eventflags, %eax
	orl	$1, %eax
	movb	%al, _eventflags
	.loc 1 442 0
	call	_StopDetection
L39:
LBE7:
	.loc 1 444 0
	movl	-12(%ebp), %eax
	movl	%eax, _prev_value
	jmp	L35
L36:
LBE6:
	.loc 1 446 0
	movl	_puiConfig, %eax
	movl	8(%eax), %eax
	cmpl	$1, %eax
	jne	L35
	.loc 1 447 0
	movl	_puiADC0Buffer, %eax
	cmpl	$104, %eax
	jbe	L35
	.loc 1 448 0
	movl	$LC4, (%esp)
	call	_UARTprintf
	.loc 1 449 0
	movzbl	_eventflags, %eax
	orl	$1, %eax
	movb	%al, _eventflags
	.loc 1 450 0
	call	_StopDetection
L35:
	.loc 1 453 0
	leave
	.cfi_restore 5
	.cfi_def_cfa 4, 4
	ret
	.cfi_endproc
LFE15:
	.globl	_AcquireInit
	.def	_AcquireInit;	.scl	2;	.type	32;	.endef
_AcquireInit:
LFB16:
	.loc 1 463 0
	.cfi_startproc
	pushl	%ebp
	.cfi_def_cfa_offset 8
	.cfi_offset 5, -8
	movl	%esp, %ebp
	.cfi_def_cfa_register 5
	subl	$40, %esp
	.loc 1 465 0
	movb	$0, _eventflags
	.loc 1 469 0
	movl	$-268421120, (%esp)
	call	_SysCtlPeripheralEnable
	.loc 1 475 0
	movl	$-268433404, (%esp)
	call	_SysCtlPeripheralEnable
	.loc 1 481 0
	movl	8(%ebp), %eax
	movl	8(%eax), %eax
	testl	%eax, %eax
	jne	L42
	.loc 1 482 0
	movl	$64, 4(%esp)
	movl	$1073889280, (%esp)
	call	_GPIOPinTypeADC
	jmp	L43
L42:
	.loc 1 483 0
	movl	8(%ebp), %eax
	movl	8(%eax), %eax
	cmpl	$1, %eax
	jne	L43
	.loc 1 484 0
	movl	$8, 4(%esp)
	movl	$1073889280, (%esp)
	call	_GPIOPinTypeADC
L43:
	.loc 1 490 0
	movl	$1, 4(%esp)
	movl	$1073971200, (%esp)
	call	_ADCReferenceSet
	.loc 1 496 0
	movl	$-268433407, (%esp)
	call	_SysCtlPeripheralEnable
	.loc 1 497 0
	movl	$1073763624, %eax
	movl	$1073763624, %edx
	movl	(%edx), %edx
	orl	$64, %edx
	movl	%edx, (%eax)
	.loc 1 504 0
	movl	$3, 12(%esp)
	movl	$5, 8(%esp)
	movl	$3, 4(%esp)
	movl	$1073971200, (%esp)
	call	_ADCSequenceConfigure
	.loc 1 506 0
	movl	$_TriggerDetectISR, 8(%esp)
	movl	$3, 4(%esp)
	movl	$1073971200, (%esp)
	call	_ADCIntRegister
	.loc 1 510 0
	movl	$0, -12(%ebp)
	.loc 1 511 0
	movl	8(%ebp), %eax
	movl	8(%eax), %eax
	testl	%eax, %eax
	jne	L44
	.loc 1 512 0
	movl	$261, -12(%ebp)
	jmp	L45
L44:
	.loc 1 513 0
	movl	8(%ebp), %eax
	movl	8(%eax), %eax
	cmpl	$1, %eax
	jne	L45
	.loc 1 514 0
	movl	$0, -12(%ebp)
L45:
	.loc 1 527 0
	movl	-12(%ebp), %eax
	orl	$96, %eax
	movl	%eax, 12(%esp)
	movl	$0, 8(%esp)
	movl	$3, 4(%esp)
	movl	$1073971200, (%esp)
	call	_ADCSequenceStepConfigure
	.loc 1 532 0
	movl	$3, 4(%esp)
	movl	$1073971200, (%esp)
	call	_ADCSequenceEnable
	.loc 1 538 0
	movl	$3, 4(%esp)
	movl	$1073971200, (%esp)
	call	_ADCIntClear
	.loc 1 540 0
	movl	$3, 4(%esp)
	movl	$1073971200, (%esp)
	call	_ADCIntEnable
	.loc 1 542 0
	call	_SysCtlClockGet
	movl	$-858993459, %edx
	mull	%edx
	movl	%edx, %eax
	shrl	$3, %eax
	movl	%eax, (%esp)
	call	_ConfigTimer0
	.loc 1 543 0
	leave
	.cfi_restore 5
	.cfi_def_cfa 4, 4
	ret
	.cfi_endproc
LFE16:
Letext0:
	.file 2 "/usr/include/stdint.h"
	.file 3 "../../../../grlib/grlib.h"
	.file 4 "uicontrol.h"
	.file 5 "<built-in>"