	.file	"exercise2.c"
	.text
Ltext0:
	.comm	_g_ui32Flags, 4, 2
	.globl	_current_time
	.bss
	.align 4
_current_time:
	.space 4
	.globl	_systick_period
	.section .rdata,"dr"
	.align 4
_systick_period:
	.long	6550
	.data
	.align 4
_uiConfig:
	.long	10
	.long	1
	.long	0
	.long	0
	.text
	.globl	_ConfigureUART
	.def	_ConfigureUART;	.scl	2;	.type	32;	.endef
_ConfigureUART:
LFB6:
	.file 1 "exercise2.c"
	.loc 1 121 0
	.cfi_startproc
	pushl	%ebp
	.cfi_def_cfa_offset 8
	.cfi_offset 5, -8
	movl	%esp, %ebp
	.cfi_def_cfa_register 5
	subl	$24, %esp
	.loc 1 125 0
	movl	$-268433408, (%esp)
	call	_ROM_SysCtlPeripheralEnable
	.loc 1 130 0
	movl	$-268429312, (%esp)
	call	_ROM_SysCtlPeripheralEnable
	.loc 1 135 0
	movl	$1, (%esp)
	call	_ROM_GPIOPinConfigure
	.loc 1 136 0
	movl	$1025, (%esp)
	call	_ROM_GPIOPinConfigure
	.loc 1 137 0
	movl	$3, 4(%esp)
	movl	$1073758208, (%esp)
	call	_ROM_GPIOPinTypeUART
	.loc 1 142 0
	movl	$5, 4(%esp)
	movl	$1073790976, (%esp)
	call	_UARTClockSourceSet
	.loc 1 147 0
	movl	$16000000, 8(%esp)
	movl	$115200, 4(%esp)
	movl	$0, (%esp)
	call	_UARTStdioConfig
	.loc 1 148 0
	leave
	.cfi_restore 5
	.cfi_def_cfa 4, 4
	ret
	.cfi_endproc
LFE6:
	.globl	_SysTickIntHandler
	.def	_SysTickIntHandler;	.scl	2;	.type	32;	.endef
_SysTickIntHandler:
LFB7:
	.loc 1 156 0
	.cfi_startproc
	pushl	%ebp
	.cfi_def_cfa_offset 8
	.cfi_offset 5, -8
	movl	%esp, %ebp
	.cfi_def_cfa_register 5
	subl	$8, %esp
	.loc 1 157 0
	call	_ROM_IntMasterDisable
	.loc 1 158 0
	movl	$-536813552, %eax
	movl	(%eax), %eax
	.loc 1 159 0
	movl	_current_time, %eax
	addl	$1, %eax
	movl	%eax, _current_time
	.loc 1 160 0
	call	_ROM_IntMasterEnable
	.loc 1 161 0
	leave
	.cfi_restore 5
	.cfi_def_cfa 4, 4
	ret
	.cfi_endproc
LFE7:
	.globl	_Timer0IntHandler
	.def	_Timer0IntHandler;	.scl	2;	.type	32;	.endef
_Timer0IntHandler:
LFB8:
	.loc 1 170 0
	.cfi_startproc
	pushl	%ebp
	.cfi_def_cfa_offset 8
	.cfi_offset 5, -8
	movl	%esp, %ebp
	.cfi_def_cfa_register 5
	subl	$24, %esp
	.loc 1 174 0
	movl	$1, 4(%esp)
	movl	$1073938432, (%esp)
	call	_ROM_TimerIntClear
	.loc 1 178 0
	movl	$_g_ui32Flags, %eax
	andl	$1048575, %eax
	sall	$5, %eax
	movl	%eax, %edx
	movl	$_g_ui32Flags, %eax
	andl	$-268435456, %eax
	orl	$33554432, %eax
	orl	%edx, %eax
	movl	$_g_ui32Flags, %edx
	andl	$1048575, %edx
	movl	%edx, %ecx
	sall	$5, %ecx
	movl	$_g_ui32Flags, %edx
	andl	$-268435456, %edx
	orl	$33554432, %edx
	orl	%ecx, %edx
	movl	(%edx), %edx
	xorl	$1, %edx
	movl	%edx, (%eax)
	.loc 1 179 0
	leave
	.cfi_restore 5
	.cfi_def_cfa 4, 4
	ret
	.cfi_endproc
LFE8:
	.globl	_Timer1IntHandler
	.def	_Timer1IntHandler;	.scl	2;	.type	32;	.endef
_Timer1IntHandler:
LFB9:
	.loc 1 188 0
	.cfi_startproc
	pushl	%ebp
	.cfi_def_cfa_offset 8
	.cfi_offset 5, -8
	movl	%esp, %ebp
	.cfi_def_cfa_register 5
	subl	$24, %esp
	.loc 1 192 0
	movl	$1, 4(%esp)
	movl	$1073942528, (%esp)
	call	_ROM_TimerIntClear
	.loc 1 196 0
	movl	$_g_ui32Flags, %eax
	andl	$1048575, %eax
	sall	$5, %eax
	movl	%eax, %edx
	movl	$_g_ui32Flags, %eax
	andl	$-268435456, %eax
	orl	$33554436, %eax
	orl	%edx, %eax
	movl	$_g_ui32Flags, %edx
	andl	$1048575, %edx
	movl	%edx, %ecx
	sall	$5, %ecx
	movl	$_g_ui32Flags, %edx
	andl	$-268435456, %edx
	orl	$33554436, %edx
	orl	%ecx, %edx
	movl	(%edx), %edx
	xorl	$1, %edx
	movl	%edx, (%eax)
	.loc 1 198 0
	leave
	.cfi_restore 5
	.cfi_def_cfa 4, 4
	ret
	.cfi_endproc
LFE9:
	.globl	_ConfigSysTick
	.def	_ConfigSysTick;	.scl	2;	.type	32;	.endef
_ConfigSysTick:
LFB10:
	.loc 1 207 0
	.cfi_startproc
	pushl	%ebp
	.cfi_def_cfa_offset 8
	.cfi_offset 5, -8
	movl	%esp, %ebp
	.cfi_def_cfa_register 5
	subl	$24, %esp
	.loc 1 211 0
	movl	$_SysTickIntHandler, (%esp)
	call	_SysTickIntRegister
	.loc 1 214 0
	movl	$96, 4(%esp)
	movl	$15, (%esp)
	call	_IntPrioritySet
	.loc 1 219 0
	call	_SysCtlClockGet
	movl	$1374389535, %edx
	mull	%edx
	movl	%edx, %eax
	shrl	$5, %eax
	movl	%eax, (%esp)
	call	_SysTickPeriodSet
	.loc 1 224 0
	call	_IntMasterEnable
	.loc 1 229 0
	call	_SysTickIntEnable
	.loc 1 234 0
	call	_SysTickEnable
	.loc 1 235 0
	leave
	.cfi_restore 5
	.cfi_def_cfa 4, 4
	ret
	.cfi_endproc
LFE10:
	.def	___main;	.scl	2;	.type	32;	.endef
	.globl	_main
	.def	_main;	.scl	2;	.type	32;	.endef
_main:
LFB11:
	.loc 1 245 0
	.cfi_startproc
	pushl	%ebp
	.cfi_def_cfa_offset 8
	.cfi_offset 5, -8
	movl	%esp, %ebp
	.cfi_def_cfa_register 5
	andl	$-16, %esp
	subl	$16, %esp
	.loc 1 245 0
	call	___main
	.loc 1 251 0
	movl	$29361472, (%esp)
	call	_ROM_SysCtlClockSet
	.loc 1 257 0
	call	_ConfigureUART
	.loc 1 259 0
	call	_CFAL96x64x16Init
	.loc 1 260 0
	call	_ButtonsInit
	.loc 1 265 0
	movl	$_g_sCFAL96x64x16, 4(%esp)
	movl	$_sDisplayContext.3260, (%esp)
	call	_GrContextInit
	.loc 1 268 0
	movl	$0, _uiConfig+12
	.loc 1 270 0
	movl	$_sDisplayContext.3260, (%esp)
	call	_vInitUI
L8:
	.loc 1 274 0
	movl	$_uiConfig, 4(%esp)
	movl	$_sDisplayContext.3260, (%esp)
	call	_vPollSBoxButton
	.loc 1 275 0
	movl	_uiConfig+12, %eax
	cmpl	$1, %eax
	jne	L7
	.loc 1 276 0
	movl	$_uiConfig, 4(%esp)
	movl	$_sDisplayContext.3260, (%esp)
	call	_AcquireMain
	.loc 1 279 0
	jmp	L8
L7:
	jmp	L8
	.cfi_endproc
LFE11:
.lcomm _sDisplayContext.3260,44,32
Letext0:
	.file 2 "/usr/include/stdint.h"
	.file 3 "../../../../grlib/grlib.h"
	.file 4 "uicontrol.h"
	.file 5 "../drivers/cfal96x64x16.h"