	.file	"systick.c"
	.text
Ltext0:
	.globl	_SysTickEnable
	.def	_SysTickEnable;	.scl	2;	.type	32;	.endef
_SysTickEnable:
LFB0:
	.file 1 "../../../../driverlib/systick.c"
	.loc 1 76 0
	.cfi_startproc
	pushl	%ebp
LCFI0:
	.cfi_def_cfa_offset 8
	.cfi_offset 5, -8
	movl	%esp, %ebp
LCFI1:
	.cfi_def_cfa_register 5
	.loc 1 80 0
	movl	$-536813552, %eax
	movl	$-536813552, %edx
	movl	(%edx), %edx
	orl	$5, %edx
	movl	%edx, (%eax)
	.loc 1 81 0
	popl	%ebp
LCFI2:
	.cfi_def_cfa 4, 4
	.cfi_restore 5
	ret
	.cfi_endproc
LFE0:
	.globl	_SysTickDisable
	.def	_SysTickDisable;	.scl	2;	.type	32;	.endef
_SysTickDisable:
LFB1:
	.loc 1 95 0
	.cfi_startproc
	pushl	%ebp
LCFI3:
	.cfi_def_cfa_offset 8
	.cfi_offset 5, -8
	movl	%esp, %ebp
LCFI4:
	.cfi_def_cfa_register 5
	.loc 1 99 0
	movl	$-536813552, %eax
	movl	$-536813552, %edx
	movl	(%edx), %edx
	andl	$-2, %edx
	movl	%edx, (%eax)
	.loc 1 100 0
	popl	%ebp
LCFI5:
	.cfi_def_cfa 4, 4
	.cfi_restore 5
	ret
	.cfi_endproc
LFE1:
	.globl	_SysTickIntRegister
	.def	_SysTickIntRegister;	.scl	2;	.type	32;	.endef
_SysTickIntRegister:
LFB2:
	.loc 1 120 0
	.cfi_startproc
	pushl	%ebp
LCFI6:
	.cfi_def_cfa_offset 8
	.cfi_offset 5, -8
	movl	%esp, %ebp
LCFI7:
	.cfi_def_cfa_register 5
	subl	$24, %esp
	.loc 1 124 0
	movl	8(%ebp), %eax
	movl	%eax, 4(%esp)
	movl	$15, (%esp)
	call	_IntRegister
	.loc 1 129 0
	movl	$-536813552, %eax
	movl	$-536813552, %edx
	movl	(%edx), %edx
	orl	$2, %edx
	movl	%edx, (%eax)
	.loc 1 130 0
	leave
	.cfi_restore 5
LCFI8:
	.cfi_def_cfa 4, 4
	ret
	.cfi_endproc
LFE2:
	.globl	_SysTickIntUnregister
	.def	_SysTickIntUnregister;	.scl	2;	.type	32;	.endef
_SysTickIntUnregister:
LFB3:
	.loc 1 147 0
	.cfi_startproc
	pushl	%ebp
LCFI9:
	.cfi_def_cfa_offset 8
	.cfi_offset 5, -8
	movl	%esp, %ebp
LCFI10:
	.cfi_def_cfa_register 5
	subl	$24, %esp
	.loc 1 151 0
	movl	$-536813552, %eax
	movl	$-536813552, %edx
	movl	(%edx), %edx
	andl	$-3, %edx
	movl	%edx, (%eax)
	.loc 1 156 0
	movl	$15, (%esp)
	call	_IntUnregister
	.loc 1 157 0
	leave
	.cfi_restore 5
LCFI11:
	.cfi_def_cfa 4, 4
	ret
	.cfi_endproc
LFE3:
	.globl	_SysTickIntEnable
	.def	_SysTickIntEnable;	.scl	2;	.type	32;	.endef
_SysTickIntEnable:
LFB4:
	.loc 1 175 0
	.cfi_startproc
	pushl	%ebp
LCFI12:
	.cfi_def_cfa_offset 8
	.cfi_offset 5, -8
	movl	%esp, %ebp
LCFI13:
	.cfi_def_cfa_register 5
	.loc 1 179 0
	movl	$-536813552, %eax
	movl	$-536813552, %edx
	movl	(%edx), %edx
	orl	$2, %edx
	movl	%edx, (%eax)
	.loc 1 180 0
	popl	%ebp
LCFI14:
	.cfi_def_cfa 4, 4
	.cfi_restore 5
	ret
	.cfi_endproc
LFE4:
	.globl	_SysTickIntDisable
	.def	_SysTickIntDisable;	.scl	2;	.type	32;	.endef
_SysTickIntDisable:
LFB5:
	.loc 1 194 0
	.cfi_startproc
	pushl	%ebp
LCFI15:
	.cfi_def_cfa_offset 8
	.cfi_offset 5, -8
	movl	%esp, %ebp
LCFI16:
	.cfi_def_cfa_register 5
	.loc 1 198 0
	movl	$-536813552, %eax
	movl	$-536813552, %edx
	movl	(%edx), %edx
	andl	$-3, %edx
	movl	%edx, (%eax)
	.loc 1 199 0
	popl	%ebp
LCFI17:
	.cfi_def_cfa 4, 4
	.cfi_restore 5
	ret
	.cfi_endproc
LFE5:
	.globl	_SysTickPeriodSet
	.def	_SysTickPeriodSet;	.scl	2;	.type	32;	.endef
_SysTickPeriodSet:
LFB6:
	.loc 1 222 0
	.cfi_startproc
	pushl	%ebp
LCFI18:
	.cfi_def_cfa_offset 8
	.cfi_offset 5, -8
	movl	%esp, %ebp
LCFI19:
	.cfi_def_cfa_register 5
	.loc 1 231 0
	movl	$-536813548, %eax
	movl	8(%ebp), %edx
	decl	%edx
	movl	%edx, (%eax)
	.loc 1 232 0
	popl	%ebp
LCFI20:
	.cfi_def_cfa 4, 4
	.cfi_restore 5
	ret
	.cfi_endproc
LFE6:
	.globl	_SysTickPeriodGet
	.def	_SysTickPeriodGet;	.scl	2;	.type	32;	.endef
_SysTickPeriodGet:
LFB7:
	.loc 1 246 0
	.cfi_startproc
	pushl	%ebp
LCFI21:
	.cfi_def_cfa_offset 8
	.cfi_offset 5, -8
	movl	%esp, %ebp
LCFI22:
	.cfi_def_cfa_register 5
	.loc 1 250 0
	movl	$-536813548, %eax
	movl	(%eax), %eax
	incl	%eax
	.loc 1 251 0
	popl	%ebp
LCFI23:
	.cfi_def_cfa 4, 4
	.cfi_restore 5
	ret
	.cfi_endproc
LFE7:
	.globl	_SysTickValueGet
	.def	_SysTickValueGet;	.scl	2;	.type	32;	.endef
_SysTickValueGet:
LFB8:
	.loc 1 265 0
	.cfi_startproc
	pushl	%ebp
LCFI24:
	.cfi_def_cfa_offset 8
	.cfi_offset 5, -8
	movl	%esp, %ebp
LCFI25:
	.cfi_def_cfa_register 5
	.loc 1 269 0
	movl	$-536813544, %eax
	movl	(%eax), %eax
	.loc 1 270 0
	popl	%ebp
LCFI26:
	.cfi_def_cfa 4, 4
	.cfi_restore 5
	ret
	.cfi_endproc
LFE8:
Letext0:
	.file 2 "c:/mingw/bin/../lib/gcc/mingw32/4.6.1/../../../../include/stdint.h"